target datalayout = "e-m:e-p270:32:32-p271:32:32-p272:64:64-i64:64-i128:128-f80:128-n8:16:32:64-S128"
target triple = "x86_64-pc-linux-gnu"

%struct.smart_string = type { ptr, i64, i64 }

@.str.1 = private unnamed_addr constant [21 x i8] c"String size overflow\00", align 1

; Function Attrs: nounwind uwtable
define void @_smart_string_alloc_persistent(ptr noundef %0, i64 noundef %1) #0 {
  %3 = alloca ptr, align 8
  %4 = alloca i64, align 8
  store ptr %0, ptr %3, align 8
  store i64 %1, ptr %4, align 8
  %5 = load ptr, ptr %3, align 8
  %6 = getelementptr inbounds %struct.smart_string, ptr %5, i32 0, i32 0
  %7 = load ptr, ptr %6, align 8
  %8 = icmp ne ptr %7, null
  br i1 %8, label %33, label %9

9:                                                ; preds = %2
  %10 = load ptr, ptr %3, align 8
  %11 = getelementptr inbounds %struct.smart_string, ptr %10, i32 0, i32 1
  store i64 0, ptr %11, align 8
  %12 = load i64, ptr %4, align 8
  %13 = icmp ule i64 %12, 255
  br i1 %13, label %14, label %17

14:                                               ; preds = %9
  %15 = load ptr, ptr %3, align 8
  %16 = getelementptr inbounds %struct.smart_string, ptr %15, i32 0, i32 2
  store i64 255, ptr %16, align 8
  br label %25

17:                                               ; preds = %9
  %18 = load i64, ptr %4, align 8
  %19 = add i64 %18, 1
  %20 = add i64 %19, 4095
  %21 = and i64 %20, -4096
  %22 = sub i64 %21, 1
  %23 = load ptr, ptr %3, align 8
  %24 = getelementptr inbounds %struct.smart_string, ptr %23, i32 0, i32 2
  store i64 %22, ptr %24, align 8
  br label %25

25:                                               ; preds = %17, %14
  %26 = load ptr, ptr %3, align 8
  %27 = getelementptr inbounds %struct.smart_string, ptr %26, i32 0, i32 2
  %28 = load i64, ptr %27, align 8
  %29 = add i64 %28, 1
  %30 = call noalias ptr @__zend_malloc(i64 noundef %29) #14
  %31 = load ptr, ptr %3, align 8
  %32 = getelementptr inbounds %struct.smart_string, ptr %31, i32 0, i32 0
  store ptr %30, ptr %32, align 8
  br label %69

33:                                               ; preds = %2
  %34 = load i64, ptr %4, align 8
  %35 = load ptr, ptr %3, align 8
  %36 = getelementptr inbounds %struct.smart_string, ptr %35, i32 0, i32 1
  %37 = load i64, ptr %36, align 8
  %38 = sub i64 -1, %37
  %39 = icmp ugt i64 %34, %38
  %40 = xor i1 %39, true
  %41 = xor i1 %40, true
  %42 = zext i1 %41 to i32
  %43 = sext i32 %42 to i64
  %44 = icmp ne i64 %43, 0
  br i1 %44, label %45, label %46

45:                                               ; preds = %33
  call void (i32, ptr, ...) @zend_error_noreturn(i32 noundef 1, ptr noundef @.str.1) #15
  unreachable

46:                                               ; preds = %33
  %47 = load ptr, ptr %3, align 8
  %48 = getelementptr inbounds %struct.smart_string, ptr %47, i32 0, i32 1
  %49 = load i64, ptr %48, align 8
  %50 = load i64, ptr %4, align 8
  %51 = add i64 %50, %49
  store i64 %51, ptr %4, align 8
  %52 = load i64, ptr %4, align 8
  %53 = add i64 %52, 1
  %54 = add i64 %53, 4095
  %55 = and i64 %54, -4096
  %56 = sub i64 %55, 1
  %57 = load ptr, ptr %3, align 8
  %58 = getelementptr inbounds %struct.smart_string, ptr %57, i32 0, i32 2
  store i64 %56, ptr %58, align 8
  %59 = load ptr, ptr %3, align 8
  %60 = getelementptr inbounds %struct.smart_string, ptr %59, i32 0, i32 0
  %61 = load ptr, ptr %60, align 8
  %62 = load ptr, ptr %3, align 8
  %63 = getelementptr inbounds %struct.smart_string, ptr %62, i32 0, i32 2
  %64 = load i64, ptr %63, align 8
  %65 = add i64 %64, 1
  %66 = call ptr @__zend_realloc(ptr noundef %61, i64 noundef %65) #12
  %67 = load ptr, ptr %3, align 8
  %68 = getelementptr inbounds %struct.smart_string, ptr %67, i32 0, i32 0
  store ptr %66, ptr %68, align 8
  br label %69

69:                                               ; preds = %46, %25
  ret void
}