; Function Attrs: nounwind uwtable
define void @_smart_string_alloc_persistent(ptr nocapture noundef %0, i64 noundef %1) local_unnamed_addr #0 {
  %3 = load ptr, ptr %0, align 8
  %.not = icmp eq ptr %3, null
  %4 = getelementptr inbounds i8, ptr %0, i64 8
  br i1 %.not, label %5, label %10

5:                                                ; preds = %2
  store i64 0, ptr %4, align 8
  %6 = or i64 %1, 4095
  %.inv = icmp ugt i64 %1, 255
  %spec.select = select i1 %.inv, i64 %6, i64 255
  %7 = getelementptr inbounds i8, ptr %0, i64 16
  store i64 %spec.select, ptr %7, align 8
  %8 = add i64 %spec.select, 1
  %9 = tail call noalias ptr @__zend_malloc(i64 noundef %8) #10
  br label %22

10:                                               ; preds = %2
  %11 = load i64, ptr %4, align 8
  %12 = xor i64 %11, -1
  %13 = icmp ult i64 %12, %1
  br i1 %13, label %14, label %15

14:                                               ; preds = %10
  tail call void (i32, ptr, ...) @zend_error_noreturn(i32 noundef 1, ptr noundef nonnull @.str.1) #14
  unreachable

15:                                               ; preds = %10
  %16 = add i64 %11, %1
  %17 = and i64 %16, -4096
  %18 = add i64 %17, 4096
  %19 = or i64 %16, 4095
  %20 = getelementptr inbounds i8, ptr %0, i64 16
  store i64 %19, ptr %20, align 8
  %21 = tail call ptr @__zend_realloc(ptr noundef nonnull %3, i64 noundef %18) #11
  br label %22

22:                                               ; preds = %15, %5
  %storemerge = phi ptr [ %9, %5 ], [ %21, %15 ]
  store ptr %storemerge, ptr %0, align 8
  ret void
}